target datalayout = "e-m:e-p270:32:32-p271:32:32-p272:64:64-i64:64-i128:128-f80:128-n8:16:32:64-S128"
target triple = "x86_64-pc-linux-gnu"

%struct.object_id = type { [32 x i8], i32 }
%struct.diff_options = type { ptr, ptr, i32, i32, ptr, i32, ptr, i64, i64, ptr, ptr, ptr, ptr, %struct.diff_flags, i32, i32, i32, i32, i32, i32, i32, i32, i32, i32, i32, i32, i32, i32, i32, i32, i32, i32, i32, i32, i32, i32, ptr, i32, ptr, i32, i32, ptr, i64, i64, i32, i32, i32, i32, ptr, i32, i32, ptr, i32, i32, ptr, ptr, i32, [3 x i8], %struct.pathspec, ptr, ptr, ptr, ptr, ptr, ptr, ptr, ptr, i32, ptr, i32, i32, ptr, ptr, i32 }
%struct.diff_flags = type { i32, i32, i32, i32, i32, i32, i32, i32, i32, i32, i32, i32, i32, i32, i32, i32, i32, i32, i32, i32, i32, i32, i32, i32, i32, i32, i32, i32, i32, i32, i32, i32, i32, i32, i32 }
%struct.pathspec = type { i32, i8, i32, i32, ptr }
%struct.combine_diff_path = type { ptr, ptr, i32, %struct.object_id, [0 x %struct.combine_diff_parent] }
%struct.combine_diff_parent = type { i8, i32, %struct.object_id, ptr }

; Function Attrs: nounwind uwtable
define internal i32 @emit_diff_first_parent_only(ptr noundef %0, ptr noundef %1) #0 {
  %3 = alloca ptr, align 8
  %4 = alloca ptr, align 8
  %5 = alloca ptr, align 8
  %6 = alloca ptr, align 8
  %7 = alloca i32, align 4
  %8 = alloca i32, align 4
  store ptr %0, ptr %3, align 8, !tbaa !15
  store ptr %1, ptr %4, align 8, !tbaa !17
  call void @llvm.lifetime.start.p0(i64 8, ptr %5) #8
  %9 = load ptr, ptr %4, align 8, !tbaa !17
  %10 = getelementptr inbounds nuw %struct.combine_diff_path, ptr %9, i32 0, i32 4
  %11 = getelementptr inbounds [0 x %struct.combine_diff_parent], ptr %10, i64 0, i64 0
  store ptr %11, ptr %5, align 8, !tbaa !136
  %12 = load ptr, ptr %4, align 8, !tbaa !17
  %13 = getelementptr inbounds nuw %struct.combine_diff_path, ptr %12, i32 0, i32 2
  %14 = load i32, ptr %13, align 8, !tbaa !11
  %15 = icmp ne i32 %14, 0
  br i1 %15, label %16, label %39

16:                                               ; preds = %2
  %17 = load ptr, ptr %5, align 8, !tbaa !136
  %18 = getelementptr inbounds nuw %struct.combine_diff_parent, ptr %17, i32 0, i32 1
  %19 = load i32, ptr %18, align 4, !tbaa !125
  %20 = icmp ne i32 %19, 0
  br i1 %20, label %21, label %39

21:                                               ; preds = %16
  %22 = load ptr, ptr %3, align 8, !tbaa !15
  %23 = getelementptr inbounds nuw %struct.diff_options, ptr %22, i32 0, i32 60
  %24 = load ptr, ptr %23, align 8, !tbaa !138
  %25 = load ptr, ptr %3, align 8, !tbaa !15
  %26 = load ptr, ptr %5, align 8, !tbaa !136
  %27 = getelementptr inbounds nuw %struct.combine_diff_parent, ptr %26, i32 0, i32 1
  %28 = load i32, ptr %27, align 4, !tbaa !125
  %29 = load ptr, ptr %4, align 8, !tbaa !17
  %30 = getelementptr inbounds nuw %struct.combine_diff_path, ptr %29, i32 0, i32 2
  %31 = load i32, ptr %30, align 8, !tbaa !11
  %32 = load ptr, ptr %5, align 8, !tbaa !136
  %33 = getelementptr inbounds nuw %struct.combine_diff_parent, ptr %32, i32 0, i32 2
  %34 = load ptr, ptr %4, align 8, !tbaa !17
  %35 = getelementptr inbounds nuw %struct.combine_diff_path, ptr %34, i32 0, i32 3
  %36 = load ptr, ptr %4, align 8, !tbaa !17
  %37 = getelementptr inbounds nuw %struct.combine_diff_path, ptr %36, i32 0, i32 1
  %38 = load ptr, ptr %37, align 8, !tbaa !62
  call void %24(ptr noundef %25, i32 noundef %28, i32 noundef %31, ptr noundef %33, ptr noundef %35, i32 noundef 1, i32 noundef 1, ptr noundef %38, i32 noundef 0, i32 noundef 0)
  br label %67

39:                                               ; preds = %16, %2
  call void @llvm.lifetime.start.p0(i64 8, ptr %6) #8
  call void @llvm.lifetime.start.p0(i64 4, ptr %7) #8
  call void @llvm.lifetime.start.p0(i64 4, ptr %8) #8
  %40 = load ptr, ptr %4, align 8, !tbaa !17
  %41 = getelementptr inbounds nuw %struct.combine_diff_path, ptr %40, i32 0, i32 2
  %42 = load i32, ptr %41, align 8, !tbaa !11
  %43 = icmp ne i32 %42, 0
  br i1 %43, label %44, label %50

44:                                               ; preds = %39
  store i32 43, ptr %8, align 4, !tbaa !11
  %45 = load ptr, ptr %4, align 8, !tbaa !17
  %46 = getelementptr inbounds nuw %struct.combine_diff_path, ptr %45, i32 0, i32 3
  store ptr %46, ptr %6, align 8, !tbaa !4
  %47 = load ptr, ptr %4, align 8, !tbaa !17
  %48 = getelementptr inbounds nuw %struct.combine_diff_path, ptr %47, i32 0, i32 2
  %49 = load i32, ptr %48, align 8, !tbaa !11
  store i32 %49, ptr %7, align 4, !tbaa !11
  br label %56

50:                                               ; preds = %39
  store i32 45, ptr %8, align 4, !tbaa !11
  %51 = load ptr, ptr %5, align 8, !tbaa !136
  %52 = getelementptr inbounds nuw %struct.combine_diff_parent, ptr %51, i32 0, i32 2
  store ptr %52, ptr %6, align 8, !tbaa !4
  %53 = load ptr, ptr %5, align 8, !tbaa !136
  %54 = getelementptr inbounds nuw %struct.combine_diff_parent, ptr %53, i32 0, i32 1
  %55 = load i32, ptr %54, align 4, !tbaa !125
  store i32 %55, ptr %7, align 4, !tbaa !11
  br label %56

56:                                               ; preds = %50, %44
  %57 = load ptr, ptr %3, align 8, !tbaa !15
  %58 = getelementptr inbounds nuw %struct.diff_options, ptr %57, i32 0, i32 61
  %59 = load ptr, ptr %58, align 8, !tbaa !139
  %60 = load ptr, ptr %3, align 8, !tbaa !15
  %61 = load i32, ptr %8, align 4, !tbaa !11
  %62 = load i32, ptr %7, align 4, !tbaa !11
  %63 = load ptr, ptr %6, align 8, !tbaa !4
  %64 = load ptr, ptr %4, align 8, !tbaa !17
  %65 = getelementptr inbounds nuw %struct.combine_diff_path, ptr %64, i32 0, i32 1
  %66 = load ptr, ptr %65, align 8, !tbaa !62
  call void %59(ptr noundef %60, i32 noundef %61, i32 noundef %62, ptr noundef %63, i32 noundef 1, ptr noundef %66, i32 noundef 0)
  call void @llvm.lifetime.end.p0(i64 4, ptr %8) #8
  call void @llvm.lifetime.end.p0(i64 4, ptr %7) #8
  call void @llvm.lifetime.end.p0(i64 8, ptr %6) #8
  br label %67

67:                                               ; preds = %56, %21
  call void @llvm.lifetime.end.p0(i64 8, ptr %5) #8
  ret i32 0
}