; Function Attrs: nounwind uwtable
define internal noundef i32 @emit_diff_first_parent_only(ptr noundef %0, ptr noundef %1) #0 {
  %3 = getelementptr inbounds nuw i8, ptr %1, i64 16
  %4 = load i32, ptr %3, align 8, !tbaa !11
  %.not = icmp eq i32 %4, 0
  br i1 %.not, label %17, label %5

5:                                                ; preds = %2
  %6 = getelementptr inbounds nuw i8, ptr %1, i64 60
  %7 = load i32, ptr %6, align 4, !tbaa !113
  %.not25 = icmp eq i32 %7, 0
  br i1 %.not25, label %15, label %8

8:                                                ; preds = %5
  %9 = getelementptr inbounds nuw i8, ptr %0, i64 488
  %10 = load ptr, ptr %9, align 8, !tbaa !117
  %11 = getelementptr inbounds nuw i8, ptr %1, i64 64
  %12 = getelementptr inbounds nuw i8, ptr %1, i64 20
  %13 = getelementptr inbounds nuw i8, ptr %1, i64 8
  %14 = load ptr, ptr %13, align 8, !tbaa !103
  tail call void %10(ptr noundef %0, i32 noundef %7, i32 noundef %4, ptr noundef nonnull %11, ptr noundef nonnull %12, i32 noundef 1, i32 noundef 1, ptr noundef %14, i32 noundef 0, i32 noundef 0) #10
  br label %26

15:                                               ; preds = %5
  %16 = getelementptr inbounds nuw i8, ptr %1, i64 20
  br label %21

17:                                               ; preds = %2
  %18 = getelementptr inbounds nuw i8, ptr %1, i64 64
  %19 = getelementptr inbounds nuw i8, ptr %1, i64 60
  %20 = load i32, ptr %19, align 4, !tbaa !113
  br label %21

21:                                               ; preds = %17, %15
  %.021 = phi ptr [ %16, %15 ], [ %18, %17 ]
  %.020 = phi i32 [ %4, %15 ], [ %20, %17 ]
  %.0 = phi i32 [ 43, %15 ], [ 45, %17 ]
  %22 = getelementptr inbounds nuw i8, ptr %0, i64 496
  %23 = load ptr, ptr %22, align 8, !tbaa !118
  %24 = getelementptr inbounds nuw i8, ptr %1, i64 8
  %25 = load ptr, ptr %24, align 8, !tbaa !103
  tail call void %23(ptr noundef %0, i32 noundef %.0, i32 noundef %.020, ptr noundef nonnull %.021, i32 noundef 1, ptr noundef %25, i32 noundef 0) #10
  br label %26

26:                                               ; preds = %21, %8
  ret i32 0
}